; Function Attrs: mustprogress uwtable
define dso_local void @_Z18OutputVariableListRKSt6vectorIP8VariableSaIS1_EERSoi(ptr noundef nonnull readonly align 8 captures(none) dereferenceable(24) %0, ptr noundef nonnull align 8 dereferenceable(8) %1, i32 noundef %2) local_unnamed_addr #5 {
  %4 = getelementptr inbounds nuw i8, ptr %0, i64 8
  %5 = load ptr, ptr %4, align 8, !tbaa !83
  %6 = load ptr, ptr %0, align 8, !tbaa !84
  %.not = icmp eq ptr %5, %6
  br i1 %.not, label %._crit_edge, label %.lr.ph

.lr.ph:                                           ; preds = %3, %.lr.ph
  %7 = phi ptr [ %15, %.lr.ph ], [ %6, %3 ]
  %.012 = phi i64 [ %13, %.lr.ph ], [ 0, %3 ]
  %8 = getelementptr inbounds nuw ptr, ptr %7, i64 %.012
  %9 = load ptr, ptr %8, align 8, !tbaa !37
  %10 = load ptr, ptr %9, align 8, !tbaa !97
  %11 = getelementptr inbounds nuw i8, ptr %10, i64 96
  %12 = load ptr, ptr %11, align 8
  tail call void %12(ptr noundef nonnull align 8 dereferenceable(200) %9, ptr noundef nonnull align 8 dereferenceable(8) %1, i32 noundef %2)
  %13 = add nuw i64 %.012, 1
  %14 = load ptr, ptr %4, align 8, !tbaa !83
  %15 = load ptr, ptr %0, align 8, !tbaa !84
  %16 = ptrtoint ptr %14 to i64
  %17 = ptrtoint ptr %15 to i64
  %18 = sub i64 %16, %17
  %19 = ashr exact i64 %18, 3
  %20 = icmp ult i64 %13, %19
  br i1 %20, label %.lr.ph, label %._crit_edge, !llvm.loop !231

._crit_edge:                                      ; preds = %.lr.ph, %3
  %.lcssa11 = phi ptr [ %5, %3 ], [ %14, %.lr.ph ]
  %.lcssa = phi ptr [ %6, %3 ], [ %15, %.lr.ph ]
  %21 = icmp eq ptr %.lcssa, %.lcssa11
  br i1 %21, label %29, label %22

22:                                               ; preds = %._crit_edge
  %23 = load ptr, ptr %.lcssa, align 8, !tbaa !37
  %24 = load ptr, ptr %23, align 8, !tbaa !97
  %25 = getelementptr inbounds nuw i8, ptr %24, i64 16
  %26 = load ptr, ptr %25, align 8
  %27 = tail call noundef zeroext i1 %26(ptr noundef nonnull align 8 dereferenceable(200) %23)
  br i1 %27, label %29, label %28

28:                                               ; preds = %22
  tail call void @_Z23OutputArrayInitializersRKSt6vectorIP8VariableSaIS1_EERSoi(ptr noundef nonnull align 8 dereferenceable(24) %0, ptr noundef nonnull align 8 dereferenceable(8) %1, i32 noundef %2)
  br label %29

29:                                               ; preds = %28, %22, %._crit_edge
  ret void
}